target datalayout = "e-m:e-p270:32:32-p271:32:32-p272:64:64-i64:64-i128:128-f80:128-n8:16:32:64-S128"
target triple = "x86_64-pc-linux-gnu"

%struct._Py_DebugOffsets = type { [8 x i8], i64, i64, %struct._runtime_state, %struct._interpreter_state, %struct._thread_state, %struct._interpreter_frame, %struct._code_object, %struct._pyobject, %struct._type_object, %struct._tuple_object, %struct._list_object, %struct._set_object, %struct._dict_object, %struct._float_object, %struct._long_object, %struct._bytes_object, %struct._unicode_object, %struct._gc, %struct._gen_object }
%struct._runtime_state = type { i64, i64, i64 }
%struct._interpreter_state = type { i64, i64, i64, i64, i64, i64, i64, i64, i64, i64, i64, i64, i64 }
%struct._thread_state = type { i64, i64, i64, i64, i64, i64, i64, i64, i64 }
%struct._interpreter_frame = type { i64, i64, i64, i64, i64, i64, i64 }
%struct._code_object = type { i64, i64, i64, i64, i64, i64, i64, i64, i64, i64 }
%struct._pyobject = type { i64, i64 }
%struct._type_object = type { i64, i64, i64, i64 }
%struct._tuple_object = type { i64, i64, i64 }
%struct._list_object = type { i64, i64, i64 }
%struct._set_object = type { i64, i64, i64, i64 }
%struct._dict_object = type { i64, i64, i64 }
%struct._float_object = type { i64, i64 }
%struct._long_object = type { i64, i64, i64 }
%struct._bytes_object = type { i64, i64, i64 }
%struct._unicode_object = type { i64, i64, i64, i64 }
%struct._gc = type { i64, i64 }
%struct._gen_object = type { i64, i64, i64, i64 }
%struct.iovec = type { ptr, i64 }

@PyExc_OSError = external global ptr, align 8
@PyExc_RuntimeError = external global ptr, align 8
@.str.18 = private unnamed_addr constant [17 x i8] c"Buffer too small\00", align 1

; Function Attrs: nounwind uwtable
define internal i64 @read_memory(i32 noundef %0, i64 noundef %1, i64 noundef %2, ptr noundef %3) #0 {
  %5 = alloca i64, align 8
  %6 = alloca i32, align 4
  %7 = alloca i64, align 8
  %8 = alloca i64, align 8
  %9 = alloca ptr, align 8
  %10 = alloca i64, align 8
  %11 = alloca [1 x %struct.iovec], align 16
  %12 = alloca [1 x %struct.iovec], align 16
  %13 = alloca i64, align 8
  %14 = alloca i64, align 8
  %15 = alloca i32, align 4
  store i32 %0, ptr %6, align 4, !tbaa !8
  store i64 %1, ptr %7, align 8, !tbaa !11
  store i64 %2, ptr %8, align 8, !tbaa !11
  store ptr %3, ptr %9, align 8, !tbaa !51
  call void @llvm.lifetime.start.p0(i64 8, ptr %10) #7
  store i64 0, ptr %10, align 8, !tbaa !11
  call void @llvm.lifetime.start.p0(i64 16, ptr %11) #7
  call void @llvm.lifetime.start.p0(i64 16, ptr %12) #7
  call void @llvm.lifetime.start.p0(i64 8, ptr %13) #7
  store i64 0, ptr %13, align 8, !tbaa !11
  call void @llvm.lifetime.start.p0(i64 8, ptr %14) #7
  store i64 0, ptr %14, align 8, !tbaa !11
  br label %16

16:                                               ; preds = %51, %4
  %17 = load ptr, ptr %9, align 8, !tbaa !51
  %18 = load i64, ptr %13, align 8, !tbaa !11
  %19 = getelementptr i8, ptr %17, i64 %18
  %20 = getelementptr [1 x %struct.iovec], ptr %11, i64 0, i64 0
  %21 = getelementptr inbounds nuw %struct.iovec, ptr %20, i32 0, i32 0
  store ptr %19, ptr %21, align 16, !tbaa !75
  %22 = load i64, ptr %8, align 8, !tbaa !11
  %23 = load i64, ptr %13, align 8, !tbaa !11
  %24 = sub i64 %22, %23
  %25 = getelementptr [1 x %struct.iovec], ptr %11, i64 0, i64 0
  %26 = getelementptr inbounds nuw %struct.iovec, ptr %25, i32 0, i32 1
  store i64 %24, ptr %26, align 8, !tbaa !77
  %27 = load i64, ptr %7, align 8, !tbaa !11
  %28 = load i64, ptr %13, align 8, !tbaa !11
  %29 = add i64 %27, %28
  %30 = inttoptr i64 %29 to ptr
  %31 = getelementptr [1 x %struct.iovec], ptr %12, i64 0, i64 0
  %32 = getelementptr inbounds nuw %struct.iovec, ptr %31, i32 0, i32 0
  store ptr %30, ptr %32, align 16, !tbaa !75
  %33 = load i64, ptr %8, align 8, !tbaa !11
  %34 = load i64, ptr %13, align 8, !tbaa !11
  %35 = sub i64 %33, %34
  %36 = getelementptr [1 x %struct.iovec], ptr %12, i64 0, i64 0
  %37 = getelementptr inbounds nuw %struct.iovec, ptr %36, i32 0, i32 1
  store i64 %35, ptr %37, align 8, !tbaa !77
  %38 = load i32, ptr %6, align 4, !tbaa !8
  %39 = getelementptr inbounds [1 x %struct.iovec], ptr %11, i64 0, i64 0
  %40 = getelementptr inbounds [1 x %struct.iovec], ptr %12, i64 0, i64 0
  %41 = call i64 @process_vm_readv(i32 noundef %38, ptr noundef %39, i64 noundef 1, ptr noundef %40, i64 noundef 1, i64 noundef 0) #7
  store i64 %41, ptr %14, align 8, !tbaa !11
  %42 = load i64, ptr %14, align 8, !tbaa !11
  %43 = icmp slt i64 %42, 0
  br i1 %43, label %44, label %47

44:                                               ; preds = %16
  %45 = load ptr, ptr @PyExc_OSError, align 8, !tbaa !3
  %46 = call ptr @PyErr_SetFromErrno(ptr noundef %45)
  store i64 -1, ptr %5, align 8
  store i32 1, ptr %15, align 4
  br label %60

47:                                               ; preds = %16
  %48 = load i64, ptr %14, align 8, !tbaa !11
  %49 = load i64, ptr %13, align 8, !tbaa !11
  %50 = add i64 %49, %48
  store i64 %50, ptr %13, align 8, !tbaa !11
  br label %51

51:                                               ; preds = %47
  %52 = load i64, ptr %14, align 8, !tbaa !11
  %53 = getelementptr [1 x %struct.iovec], ptr %11, i64 0, i64 0
  %54 = getelementptr inbounds nuw %struct.iovec, ptr %53, i32 0, i32 1
  %55 = load i64, ptr %54, align 8, !tbaa !77
  %56 = icmp ne i64 %52, %55
  br i1 %56, label %16, label %57, !llvm.loop !78

57:                                               ; preds = %51
  %58 = load i64, ptr %13, align 8, !tbaa !11
  store i64 %58, ptr %10, align 8, !tbaa !11
  %59 = load i64, ptr %10, align 8, !tbaa !11
  store i64 %59, ptr %5, align 8
  store i32 1, ptr %15, align 4
  br label %60

60:                                               ; preds = %57, %44
  call void @llvm.lifetime.end.p0(i64 8, ptr %14) #7
  call void @llvm.lifetime.end.p0(i64 8, ptr %13) #7
  call void @llvm.lifetime.end.p0(i64 16, ptr %12) #7
  call void @llvm.lifetime.end.p0(i64 16, ptr %11) #7
  call void @llvm.lifetime.end.p0(i64 8, ptr %10) #7
  %61 = load i64, ptr %5, align 8
  ret i64 %61
}

; Function Attrs: nounwind uwtable
define internal i32 @read_string(i32 noundef %0, ptr noundef %1, i64 noundef %2, ptr noundef %3, i64 noundef %4) #0 {
  %6 = alloca i32, align 4
  %7 = alloca i32, align 4
  %8 = alloca ptr, align 8
  %9 = alloca i64, align 8
  %10 = alloca ptr, align 8
  %11 = alloca i64, align 8
  %12 = alloca i64, align 8
  %13 = alloca i64, align 8
  %14 = alloca i32, align 4
  %15 = alloca i64, align 8
  store i32 %0, ptr %7, align 4, !tbaa !8
  store ptr %1, ptr %8, align 8, !tbaa !41
  store i64 %2, ptr %9, align 8, !tbaa !11
  store ptr %3, ptr %10, align 8, !tbaa !49
  store i64 %4, ptr %11, align 8, !tbaa !11
  call void @llvm.lifetime.start.p0(i64 8, ptr %12) #7
  call void @llvm.lifetime.start.p0(i64 8, ptr %13) #7
  %16 = load i32, ptr %7, align 4, !tbaa !8
  %17 = load i64, ptr %9, align 8, !tbaa !11
  %18 = load ptr, ptr %8, align 8, !tbaa !41
  %19 = getelementptr inbounds nuw %struct._Py_DebugOffsets, ptr %18, i32 0, i32 17
  %20 = getelementptr inbounds nuw %struct._unicode_object, ptr %19, i32 0, i32 2
  %21 = load i64, ptr %20, align 8, !tbaa !80
  %22 = add i64 %17, %21
  %23 = call i64 @read_memory(i32 noundef %16, i64 noundef %22, i64 noundef 8, ptr noundef %12)
  store i64 %23, ptr %13, align 8, !tbaa !11
  %24 = load i64, ptr %13, align 8, !tbaa !11
  %25 = icmp slt i64 %24, 0
  br i1 %25, label %26, label %27

26:                                               ; preds = %5
  store i32 -1, ptr %6, align 4
  store i32 1, ptr %14, align 4
  br label %53

27:                                               ; preds = %5
  %28 = load i64, ptr %12, align 8, !tbaa !11
  %29 = load i64, ptr %11, align 8, !tbaa !11
  %30 = icmp sge i64 %28, %29
  br i1 %30, label %31, label %33

31:                                               ; preds = %27
  %32 = load ptr, ptr @PyExc_RuntimeError, align 8, !tbaa !3
  call void @PyErr_SetString(ptr noundef %32, ptr noundef @.str.18)
  store i32 -1, ptr %6, align 4
  store i32 1, ptr %14, align 4
  br label %53

33:                                               ; preds = %27
  call void @llvm.lifetime.start.p0(i64 8, ptr %15) #7
  %34 = load ptr, ptr %8, align 8, !tbaa !41
  %35 = getelementptr inbounds nuw %struct._Py_DebugOffsets, ptr %34, i32 0, i32 17
  %36 = getelementptr inbounds nuw %struct._unicode_object, ptr %35, i32 0, i32 3
  %37 = load i64, ptr %36, align 8, !tbaa !81
  store i64 %37, ptr %15, align 8, !tbaa !11
  %38 = load i32, ptr %7, align 4, !tbaa !8
  %39 = load i64, ptr %9, align 8, !tbaa !11
  %40 = load i64, ptr %15, align 8, !tbaa !11
  %41 = add i64 %39, %40
  %42 = load i64, ptr %12, align 8, !tbaa !11
  %43 = load ptr, ptr %10, align 8, !tbaa !49
  %44 = call i64 @read_memory(i32 noundef %38, i64 noundef %41, i64 noundef %42, ptr noundef %43)
  store i64 %44, ptr %13, align 8, !tbaa !11
  %45 = load i64, ptr %13, align 8, !tbaa !11
  %46 = icmp slt i64 %45, 0
  br i1 %46, label %47, label %48

47:                                               ; preds = %33
  store i32 -1, ptr %6, align 4
  store i32 1, ptr %14, align 4
  br label %52

48:                                               ; preds = %33
  %49 = load ptr, ptr %10, align 8, !tbaa !49
  %50 = load i64, ptr %12, align 8, !tbaa !11
  %51 = getelementptr i8, ptr %49, i64 %50
  store i8 0, ptr %51, align 1, !tbaa !10
  store i32 0, ptr %6, align 4
  store i32 1, ptr %14, align 4
  br label %52

52:                                               ; preds = %48, %47
  call void @llvm.lifetime.end.p0(i64 8, ptr %15) #7
  br label %53

53:                                               ; preds = %52, %31, %26
  call void @llvm.lifetime.end.p0(i64 8, ptr %13) #7
  call void @llvm.lifetime.end.p0(i64 8, ptr %12) #7
  %54 = load i32, ptr %6, align 4
  ret i32 %54
}

; Function Attrs: nounwind uwtable
define internal ptr @read_py_str(i32 noundef %0, ptr noundef %1, i64 noundef %2, i64 noundef %3) #0 {
  %5 = alloca ptr, align 8
  %6 = alloca i32, align 4
  %7 = alloca ptr, align 8
  %8 = alloca i64, align 8
  %9 = alloca i64, align 8
  %10 = alloca ptr, align 8
  %11 = alloca ptr, align 8
  %12 = alloca i32, align 4
  store i32 %0, ptr %6, align 4, !tbaa !8
  store ptr %1, ptr %7, align 8, !tbaa !41
  store i64 %2, ptr %8, align 8, !tbaa !11
  store i64 %3, ptr %9, align 8, !tbaa !11
  call void @llvm.lifetime.start.p0(i64 8, ptr %10) #7
  store ptr null, ptr %10, align 8, !tbaa !3
  call void @llvm.lifetime.start.p0(i64 8, ptr %11) #7
  %13 = load i64, ptr %9, align 8, !tbaa !11
  %14 = call ptr @PyMem_RawMalloc(i64 noundef %13)
  store ptr %14, ptr %11, align 8, !tbaa !49
  %15 = load ptr, ptr %11, align 8, !tbaa !49
  %16 = icmp eq ptr %15, null
  br i1 %16, label %17, label %19

17:                                               ; preds = %4
  %18 = call ptr @PyErr_NoMemory()
  store ptr null, ptr %5, align 8
  store i32 1, ptr %12, align 4
  br label %39

19:                                               ; preds = %4
  %20 = load i32, ptr %6, align 4, !tbaa !8
  %21 = load ptr, ptr %7, align 8, !tbaa !41
  %22 = load i64, ptr %8, align 8, !tbaa !11
  %23 = load ptr, ptr %11, align 8, !tbaa !49
  %24 = load i64, ptr %9, align 8, !tbaa !11
  %25 = call i32 @read_string(i32 noundef %20, ptr noundef %21, i64 noundef %22, ptr noundef %23, i64 noundef %24)
  %26 = icmp ne i32 %25, 0
  br i1 %26, label %27, label %28

27:                                               ; preds = %19
  br label %37

28:                                               ; preds = %19
  %29 = load ptr, ptr %11, align 8, !tbaa !49
  %30 = call ptr @PyUnicode_FromString(ptr noundef %29)
  store ptr %30, ptr %10, align 8, !tbaa !3
  %31 = load ptr, ptr %10, align 8, !tbaa !3
  %32 = icmp eq ptr %31, null
  br i1 %32, label %33, label %34

33:                                               ; preds = %28
  br label %37

34:                                               ; preds = %28
  %35 = load ptr, ptr %11, align 8, !tbaa !49
  call void @PyMem_RawFree(ptr noundef %35)
  %36 = load ptr, ptr %10, align 8, !tbaa !3
  store ptr %36, ptr %5, align 8
  store i32 1, ptr %12, align 4
  br label %39

37:                                               ; preds = %33, %27
  %38 = load ptr, ptr %11, align 8, !tbaa !49
  call void @PyMem_RawFree(ptr noundef %38)
  store ptr null, ptr %5, align 8
  store i32 1, ptr %12, align 4
  br label %39

39:                                               ; preds = %37, %34, %17
  call void @llvm.lifetime.end.p0(i64 8, ptr %11) #7
  call void @llvm.lifetime.end.p0(i64 8, ptr %10) #7
  %40 = load ptr, ptr %5, align 8
  ret ptr %40
}