; Function Attrs: nounwind uwtable
define internal fastcc ptr @read_py_str(i32 noundef %0, ptr noundef nonnull readonly captures(none) %1, i64 noundef %2, i64 noundef range(i64 255, 257) %3) unnamed_addr #0 {
  %5 = alloca [1 x %struct.iovec], align 16
  %6 = alloca [1 x %struct.iovec], align 16
  %7 = alloca [1 x %struct.iovec], align 16
  %8 = alloca [1 x %struct.iovec], align 16
  %9 = alloca i64, align 8
  %10 = tail call ptr @PyMem_RawMalloc(i64 noundef %3) #9
  %11 = icmp eq ptr %10, null
  br i1 %11, label %12, label %14

12:                                               ; preds = %4
  %13 = tail call ptr @PyErr_NoMemory() #9
  br label %63

14:                                               ; preds = %4
  call void @llvm.lifetime.start.p0(i64 8, ptr nonnull %9) #9
  %15 = getelementptr inbounds nuw i8, ptr %1, i64 592
  %16 = load i64, ptr %15, align 8, !tbaa !71
  %17 = add i64 %16, %2
  call void @llvm.lifetime.start.p0(i64 16, ptr nonnull %7) #9
  call void @llvm.lifetime.start.p0(i64 16, ptr nonnull %8) #9
  %18 = getelementptr inbounds nuw i8, ptr %7, i64 8
  %19 = getelementptr inbounds nuw i8, ptr %8, i64 8
  br label %20

20:                                               ; preds = %29, %14
  %.0.i.i = phi i64 [ 0, %14 ], [ %30, %29 ]
  %21 = getelementptr i8, ptr %9, i64 %.0.i.i
  store ptr %21, ptr %7, align 16, !tbaa !29
  %22 = sub i64 8, %.0.i.i
  store i64 %22, ptr %18, align 8, !tbaa !32
  %23 = add i64 %17, %.0.i.i
  %24 = inttoptr i64 %23 to ptr
  store ptr %24, ptr %8, align 16, !tbaa !29
  store i64 %22, ptr %19, align 8, !tbaa !32
  %25 = call i64 @process_vm_readv(i32 noundef %0, ptr noundef nonnull %7, i64 noundef 1, ptr noundef nonnull %8, i64 noundef 1, i64 noundef 0) #9
  %26 = icmp slt i64 %25, 0
  br i1 %26, label %read_memory.exit.thread.i, label %29

read_memory.exit.thread.i:                        ; preds = %20
  %27 = load ptr, ptr @PyExc_OSError, align 8, !tbaa !33
  %28 = call ptr @PyErr_SetFromErrno(ptr noundef %27) #9
  call void @llvm.lifetime.end.p0(i64 16, ptr nonnull %8) #9
  call void @llvm.lifetime.end.p0(i64 16, ptr nonnull %7) #9
  br label %read_string.exit.thread

29:                                               ; preds = %20
  %30 = add i64 %25, %.0.i.i
  %31 = load i64, ptr %18, align 8, !tbaa !32
  %.not.i.i = icmp eq i64 %25, %31
  br i1 %.not.i.i, label %read_memory.exit.i, label %20, !llvm.loop !35

read_memory.exit.i:                               ; preds = %29
  call void @llvm.lifetime.end.p0(i64 16, ptr nonnull %8) #9
  call void @llvm.lifetime.end.p0(i64 16, ptr nonnull %7) #9
  %32 = icmp slt i64 %30, 0
  br i1 %32, label %read_string.exit.thread, label %33

33:                                               ; preds = %read_memory.exit.i
  %34 = load i64, ptr %9, align 8, !tbaa !8
  %.not.i = icmp slt i64 %34, %3
  br i1 %.not.i, label %37, label %35

35:                                               ; preds = %33
  %36 = load ptr, ptr @PyExc_RuntimeError, align 8, !tbaa !33
  call void @PyErr_SetString(ptr noundef %36, ptr noundef nonnull @.str.18) #9
  br label %read_string.exit.thread

37:                                               ; preds = %33
  %38 = getelementptr inbounds nuw i8, ptr %1, i64 600
  %39 = load i64, ptr %38, align 8, !tbaa !72
  %40 = add i64 %39, %2
  call void @llvm.lifetime.start.p0(i64 16, ptr nonnull %5) #9
  call void @llvm.lifetime.start.p0(i64 16, ptr nonnull %6) #9
  %41 = getelementptr inbounds nuw i8, ptr %5, i64 8
  %42 = getelementptr inbounds nuw i8, ptr %6, i64 8
  br label %43

43:                                               ; preds = %52, %37
  %.0.i13.i = phi i64 [ 0, %37 ], [ %53, %52 ]
  %44 = getelementptr i8, ptr %10, i64 %.0.i13.i
  store ptr %44, ptr %5, align 16, !tbaa !29
  %45 = sub i64 %34, %.0.i13.i
  store i64 %45, ptr %41, align 8, !tbaa !32
  %46 = add i64 %40, %.0.i13.i
  %47 = inttoptr i64 %46 to ptr
  store ptr %47, ptr %6, align 16, !tbaa !29
  store i64 %45, ptr %42, align 8, !tbaa !32
  %48 = call i64 @process_vm_readv(i32 noundef %0, ptr noundef nonnull %5, i64 noundef 1, ptr noundef nonnull %6, i64 noundef 1, i64 noundef 0) #9
  %49 = icmp slt i64 %48, 0
  br i1 %49, label %read_memory.exit16.thread.i, label %52

read_memory.exit16.thread.i:                      ; preds = %43
  %50 = load ptr, ptr @PyExc_OSError, align 8, !tbaa !33
  %51 = call ptr @PyErr_SetFromErrno(ptr noundef %50) #9
  call void @llvm.lifetime.end.p0(i64 16, ptr nonnull %6) #9
  call void @llvm.lifetime.end.p0(i64 16, ptr nonnull %5) #9
  br label %read_string.exit.thread

52:                                               ; preds = %43
  %53 = add i64 %48, %.0.i13.i
  %54 = load i64, ptr %41, align 8, !tbaa !32
  %.not.i14.i = icmp eq i64 %48, %54
  br i1 %.not.i14.i, label %read_memory.exit16.i, label %43, !llvm.loop !35

read_memory.exit16.i:                             ; preds = %52
  call void @llvm.lifetime.end.p0(i64 16, ptr nonnull %6) #9
  call void @llvm.lifetime.end.p0(i64 16, ptr nonnull %5) #9
  %55 = icmp slt i64 %53, 0
  br i1 %55, label %read_string.exit.thread, label %56

read_string.exit.thread:                          ; preds = %35, %read_memory.exit.i, %read_memory.exit16.i, %read_memory.exit.thread.i, %read_memory.exit16.thread.i
  call void @llvm.lifetime.end.p0(i64 8, ptr nonnull %9) #9
  br label %62

56:                                               ; preds = %read_memory.exit16.i
  %57 = load i64, ptr %9, align 8, !tbaa !8
  %58 = getelementptr i8, ptr %10, i64 %57
  store i8 0, ptr %58, align 1, !tbaa !3
  call void @llvm.lifetime.end.p0(i64 8, ptr nonnull %9) #9
  %59 = call ptr @PyUnicode_FromString(ptr noundef nonnull %10) #9
  %60 = icmp eq ptr %59, null
  br i1 %60, label %62, label %61

61:                                               ; preds = %56
  call void @PyMem_RawFree(ptr noundef nonnull %10) #9
  br label %63

62:                                               ; preds = %read_string.exit.thread, %56
  call void @PyMem_RawFree(ptr noundef nonnull %10) #9
  br label %63

63:                                               ; preds = %62, %61, %12
  %.0 = phi ptr [ null, %12 ], [ null, %62 ], [ %59, %61 ]
  ret ptr %.0
}